
GccApplication1.elf:     file format elf32-avr

Sections:
Idx Name          Size      VMA       LMA       File off  Algn
  0 .data         00000000  00800200  00800200  00000256  2**0
                  CONTENTS, ALLOC, LOAD, DATA
  1 .text         00000202  00000000  00000000  00000054  2**1
                  CONTENTS, ALLOC, LOAD, READONLY, CODE
  2 .comment      00000030  00000000  00000000  00000256  2**0
                  CONTENTS, READONLY
  3 .note.gnu.avr.deviceinfo 00000040  00000000  00000000  00000288  2**2
                  CONTENTS, READONLY
  4 .debug_aranges 00000030  00000000  00000000  000002c8  2**0
                  CONTENTS, READONLY, DEBUGGING
  5 .debug_info   00000eb8  00000000  00000000  000002f8  2**0
                  CONTENTS, READONLY, DEBUGGING
  6 .debug_abbrev 00000c36  00000000  00000000  000011b0  2**0
                  CONTENTS, READONLY, DEBUGGING
  7 .debug_line   000004d8  00000000  00000000  00001de6  2**0
                  CONTENTS, READONLY, DEBUGGING
  8 .debug_frame  00000058  00000000  00000000  000022c0  2**2
                  CONTENTS, READONLY, DEBUGGING
  9 .debug_str    00000567  00000000  00000000  00002318  2**0
                  CONTENTS, READONLY, DEBUGGING
 10 .debug_loc    0000014f  00000000  00000000  0000287f  2**0
                  CONTENTS, READONLY, DEBUGGING
 11 .debug_ranges 00000020  00000000  00000000  000029ce  2**0
                  CONTENTS, READONLY, DEBUGGING

Disassembly of section .text:

00000000 <__vectors>:
   0:	71 c0       	rjmp	.+226    	; 0xe4 <__ctors_end>
   2:	00 00       	nop
   4:	79 c0       	rjmp	.+242    	; 0xf8 <__bad_interrupt>
   6:	00 00       	nop
   8:	77 c0       	rjmp	.+238    	; 0xf8 <__bad_interrupt>
   a:	00 00       	nop
   c:	75 c0       	rjmp	.+234    	; 0xf8 <__bad_interrupt>
   e:	00 00       	nop
  10:	73 c0       	rjmp	.+230    	; 0xf8 <__bad_interrupt>
  12:	00 00       	nop
  14:	71 c0       	rjmp	.+226    	; 0xf8 <__bad_interrupt>
  16:	00 00       	nop
  18:	6f c0       	rjmp	.+222    	; 0xf8 <__bad_interrupt>
  1a:	00 00       	nop
  1c:	6d c0       	rjmp	.+218    	; 0xf8 <__bad_interrupt>
  1e:	00 00       	nop
  20:	6b c0       	rjmp	.+214    	; 0xf8 <__bad_interrupt>
  22:	00 00       	nop
  24:	69 c0       	rjmp	.+210    	; 0xf8 <__bad_interrupt>
  26:	00 00       	nop
  28:	67 c0       	rjmp	.+206    	; 0xf8 <__bad_interrupt>
  2a:	00 00       	nop
  2c:	65 c0       	rjmp	.+202    	; 0xf8 <__bad_interrupt>
  2e:	00 00       	nop
  30:	63 c0       	rjmp	.+198    	; 0xf8 <__bad_interrupt>
  32:	00 00       	nop
  34:	61 c0       	rjmp	.+194    	; 0xf8 <__bad_interrupt>
  36:	00 00       	nop
  38:	5f c0       	rjmp	.+190    	; 0xf8 <__bad_interrupt>
  3a:	00 00       	nop
  3c:	5d c0       	rjmp	.+186    	; 0xf8 <__bad_interrupt>
  3e:	00 00       	nop
  40:	5b c0       	rjmp	.+182    	; 0xf8 <__bad_interrupt>
  42:	00 00       	nop
  44:	59 c0       	rjmp	.+178    	; 0xf8 <__bad_interrupt>
  46:	00 00       	nop
  48:	57 c0       	rjmp	.+174    	; 0xf8 <__bad_interrupt>
  4a:	00 00       	nop
  4c:	55 c0       	rjmp	.+170    	; 0xf8 <__bad_interrupt>
  4e:	00 00       	nop
  50:	53 c0       	rjmp	.+166    	; 0xf8 <__bad_interrupt>
  52:	00 00       	nop
  54:	51 c0       	rjmp	.+162    	; 0xf8 <__bad_interrupt>
  56:	00 00       	nop
  58:	4f c0       	rjmp	.+158    	; 0xf8 <__bad_interrupt>
  5a:	00 00       	nop
  5c:	4d c0       	rjmp	.+154    	; 0xf8 <__bad_interrupt>
  5e:	00 00       	nop
  60:	4b c0       	rjmp	.+150    	; 0xf8 <__bad_interrupt>
  62:	00 00       	nop
  64:	49 c0       	rjmp	.+146    	; 0xf8 <__bad_interrupt>
  66:	00 00       	nop
  68:	47 c0       	rjmp	.+142    	; 0xf8 <__bad_interrupt>
  6a:	00 00       	nop
  6c:	45 c0       	rjmp	.+138    	; 0xf8 <__bad_interrupt>
  6e:	00 00       	nop
  70:	43 c0       	rjmp	.+134    	; 0xf8 <__bad_interrupt>
  72:	00 00       	nop
  74:	41 c0       	rjmp	.+130    	; 0xf8 <__bad_interrupt>
  76:	00 00       	nop
  78:	3f c0       	rjmp	.+126    	; 0xf8 <__bad_interrupt>
  7a:	00 00       	nop
  7c:	3d c0       	rjmp	.+122    	; 0xf8 <__bad_interrupt>
  7e:	00 00       	nop
  80:	3b c0       	rjmp	.+118    	; 0xf8 <__bad_interrupt>
  82:	00 00       	nop
  84:	39 c0       	rjmp	.+114    	; 0xf8 <__bad_interrupt>
  86:	00 00       	nop
  88:	37 c0       	rjmp	.+110    	; 0xf8 <__bad_interrupt>
  8a:	00 00       	nop
  8c:	35 c0       	rjmp	.+106    	; 0xf8 <__bad_interrupt>
  8e:	00 00       	nop
  90:	33 c0       	rjmp	.+102    	; 0xf8 <__bad_interrupt>
  92:	00 00       	nop
  94:	31 c0       	rjmp	.+98     	; 0xf8 <__bad_interrupt>
  96:	00 00       	nop
  98:	2f c0       	rjmp	.+94     	; 0xf8 <__bad_interrupt>
  9a:	00 00       	nop
  9c:	2d c0       	rjmp	.+90     	; 0xf8 <__bad_interrupt>
  9e:	00 00       	nop
  a0:	2b c0       	rjmp	.+86     	; 0xf8 <__bad_interrupt>
  a2:	00 00       	nop
  a4:	29 c0       	rjmp	.+82     	; 0xf8 <__bad_interrupt>
  a6:	00 00       	nop
  a8:	27 c0       	rjmp	.+78     	; 0xf8 <__bad_interrupt>
  aa:	00 00       	nop
  ac:	25 c0       	rjmp	.+74     	; 0xf8 <__bad_interrupt>
  ae:	00 00       	nop
  b0:	23 c0       	rjmp	.+70     	; 0xf8 <__bad_interrupt>
  b2:	00 00       	nop
  b4:	21 c0       	rjmp	.+66     	; 0xf8 <__bad_interrupt>
  b6:	00 00       	nop
  b8:	1f c0       	rjmp	.+62     	; 0xf8 <__bad_interrupt>
  ba:	00 00       	nop
  bc:	1d c0       	rjmp	.+58     	; 0xf8 <__bad_interrupt>
  be:	00 00       	nop
  c0:	1b c0       	rjmp	.+54     	; 0xf8 <__bad_interrupt>
  c2:	00 00       	nop
  c4:	19 c0       	rjmp	.+50     	; 0xf8 <__bad_interrupt>
  c6:	00 00       	nop
  c8:	17 c0       	rjmp	.+46     	; 0xf8 <__bad_interrupt>
  ca:	00 00       	nop
  cc:	15 c0       	rjmp	.+42     	; 0xf8 <__bad_interrupt>
  ce:	00 00       	nop
  d0:	13 c0       	rjmp	.+38     	; 0xf8 <__bad_interrupt>
  d2:	00 00       	nop
  d4:	11 c0       	rjmp	.+34     	; 0xf8 <__bad_interrupt>
  d6:	00 00       	nop
  d8:	0f c0       	rjmp	.+30     	; 0xf8 <__bad_interrupt>
  da:	00 00       	nop
  dc:	0d c0       	rjmp	.+26     	; 0xf8 <__bad_interrupt>
  de:	00 00       	nop
  e0:	0b c0       	rjmp	.+22     	; 0xf8 <__bad_interrupt>
	...

000000e4 <__ctors_end>:
  e4:	11 24       	eor	r1, r1
  e6:	1f be       	out	0x3f, r1	; 63
  e8:	cf ef       	ldi	r28, 0xFF	; 255
  ea:	d1 e2       	ldi	r29, 0x21	; 33
  ec:	de bf       	out	0x3e, r29	; 62
  ee:	cd bf       	out	0x3d, r28	; 61
  f0:	00 e0       	ldi	r16, 0x00	; 0
  f2:	0c bf       	out	0x3c, r16	; 60
  f4:	28 d0       	rcall	.+80     	; 0x146 <main>
  f6:	83 c0       	rjmp	.+262    	; 0x1fe <_exit>

000000f8 <__bad_interrupt>:
  f8:	83 cf       	rjmp	.-250    	; 0x0 <__vectors>

000000fa <delaynus>:
#include <stdlib.h>
#include <util/delay_basic.h>


void delaynus(int n) // delay microsecond
{
  fa:	ac 01       	movw	r20, r24
	int k;
	for(k=0;k<n;k++)
  fc:	18 16       	cp	r1, r24
  fe:	19 06       	cpc	r1, r25
 100:	5c f4       	brge	.+22     	; 0x118 <delaynus+0x1e>
 102:	20 e0       	ldi	r18, 0x00	; 0
 104:	30 e0       	ldi	r19, 0x00	; 0
    can be achieved.
*/
void
_delay_loop_1(uint8_t __count)
{
	__asm__ volatile (
 106:	81 e0       	ldi	r24, 0x01	; 1
 108:	98 2f       	mov	r25, r24
 10a:	9a 95       	dec	r25
 10c:	f1 f7       	brne	.-4      	; 0x10a <delaynus+0x10>
 10e:	2f 5f       	subi	r18, 0xFF	; 255
 110:	3f 4f       	sbci	r19, 0xFF	; 255
 112:	42 17       	cp	r20, r18
 114:	53 07       	cpc	r21, r19
 116:	c1 f7       	brne	.-16     	; 0x108 <delaynus+0xe>
 118:	08 95       	ret

0000011a <delaynms>:
	_delay_loop_1(1);
}
void delaynms(int n) // delay millisecond
{
 11a:	0f 93       	push	r16
 11c:	1f 93       	push	r17
 11e:	cf 93       	push	r28
 120:	df 93       	push	r29
	int k;
	for(k=0;k<n;k++)
 122:	18 16       	cp	r1, r24
 124:	19 06       	cpc	r1, r25
 126:	54 f4       	brge	.+20     	; 0x13c <delaynms+0x22>
 128:	8c 01       	movw	r16, r24
 12a:	c0 e0       	ldi	r28, 0x00	; 0
 12c:	d0 e0       	ldi	r29, 0x00	; 0
	delaynus(1000);
 12e:	88 ee       	ldi	r24, 0xE8	; 232
 130:	93 e0       	ldi	r25, 0x03	; 3
 132:	e3 df       	rcall	.-58     	; 0xfa <delaynus>
	_delay_loop_1(1);
}
void delaynms(int n) // delay millisecond
{
	int k;
	for(k=0;k<n;k++)
 134:	21 96       	adiw	r28, 0x01	; 1
 136:	0c 17       	cp	r16, r28
 138:	1d 07       	cpc	r17, r29
 13a:	c9 f7       	brne	.-14     	; 0x12e <delaynms+0x14>
	delaynus(1000);
}
 13c:	df 91       	pop	r29
 13e:	cf 91       	pop	r28
 140:	1f 91       	pop	r17
 142:	0f 91       	pop	r16
 144:	08 95       	ret

00000146 <main>:
/*--------------MAIN LOOP-----------------*/
int main(int argc, char* argv[])
{
	//DDRC is defined in iom2560, it appears to be a memory address
	//DDR data direction register
	DDRC = 0b11111111;//sets all pins on port l to output
 146:	8f ef       	ldi	r24, 0xFF	; 255
 148:	87 b9       	out	0x07, r24	; 7
	//Port C is also defined in iom2560.h, also is a memory address
	PORTC = 0xFF; //sets all pins as high
 14a:	88 b9       	out	0x08, r24	; 8
	
	while(1){
		PORTC = 0b11000000;//xx-- ----
 14c:	0f 2e       	mov	r0, r31
 14e:	f0 ec       	ldi	r31, 0xC0	; 192
 150:	bf 2e       	mov	r11, r31
 152:	f0 2d       	mov	r31, r0
		delaynms(250);
		PORTC = 0b11100000;//xxx- ----
 154:	0f 2e       	mov	r0, r31
 156:	f0 ee       	ldi	r31, 0xE0	; 224
 158:	df 2e       	mov	r13, r31
 15a:	f0 2d       	mov	r31, r0
		delaynms(250);
		PORTC = 0b11110000;//xxxx ----
 15c:	0f 2e       	mov	r0, r31
 15e:	f0 ef       	ldi	r31, 0xF0	; 240
 160:	ef 2e       	mov	r14, r31
 162:	f0 2d       	mov	r31, r0
		delaynms(250);
		PORTC = 0b01111000;//-xxx x---
 164:	0f 2e       	mov	r0, r31
 166:	f8 e7       	ldi	r31, 0x78	; 120
 168:	ff 2e       	mov	r15, r31
 16a:	f0 2d       	mov	r31, r0
		delaynms(250);
		PORTC = 0b00111100;//--xx xx--
 16c:	0c e3       	ldi	r16, 0x3C	; 60
		delaynms(250);
		PORTC = 0b00011110;//---x xxx-
 16e:	1e e1       	ldi	r17, 0x1E	; 30
		delaynms(250);
		PORTC = 0b00001111;//---- xxxx
 170:	df e0       	ldi	r29, 0x0F	; 15
		delaynms(250);
		PORTC = 0b00000111;//---- -xxx
 172:	c7 e0       	ldi	r28, 0x07	; 7
		delaynms(250);
		
		PORTC = 0b00000011;//---- --xx
 174:	0f 2e       	mov	r0, r31
 176:	f3 e0       	ldi	r31, 0x03	; 3
 178:	cf 2e       	mov	r12, r31
 17a:	f0 2d       	mov	r31, r0
	DDRC = 0b11111111;//sets all pins on port l to output
	//Port C is also defined in iom2560.h, also is a memory address
	PORTC = 0xFF; //sets all pins as high
	
	while(1){
		PORTC = 0b11000000;//xx-- ----
 17c:	b8 b8       	out	0x08, r11	; 8
		delaynms(250);
 17e:	8a ef       	ldi	r24, 0xFA	; 250
 180:	90 e0       	ldi	r25, 0x00	; 0
 182:	cb df       	rcall	.-106    	; 0x11a <delaynms>
		PORTC = 0b11100000;//xxx- ----
 184:	d8 b8       	out	0x08, r13	; 8
		delaynms(250);
 186:	8a ef       	ldi	r24, 0xFA	; 250
 188:	90 e0       	ldi	r25, 0x00	; 0
 18a:	c7 df       	rcall	.-114    	; 0x11a <delaynms>
		PORTC = 0b11110000;//xxxx ----
 18c:	e8 b8       	out	0x08, r14	; 8
		delaynms(250);
 18e:	8a ef       	ldi	r24, 0xFA	; 250
 190:	90 e0       	ldi	r25, 0x00	; 0
 192:	c3 df       	rcall	.-122    	; 0x11a <delaynms>
		PORTC = 0b01111000;//-xxx x---
		delaynms(250);
 194:	f8 b8       	out	0x08, r15	; 8
 196:	8a ef       	ldi	r24, 0xFA	; 250
 198:	90 e0       	ldi	r25, 0x00	; 0
		PORTC = 0b00111100;//--xx xx--
 19a:	bf df       	rcall	.-130    	; 0x11a <delaynms>
		delaynms(250);
 19c:	08 b9       	out	0x08, r16	; 8
 19e:	8a ef       	ldi	r24, 0xFA	; 250
 1a0:	90 e0       	ldi	r25, 0x00	; 0
		PORTC = 0b00011110;//---x xxx-
 1a2:	bb df       	rcall	.-138    	; 0x11a <delaynms>
		delaynms(250);
 1a4:	18 b9       	out	0x08, r17	; 8
 1a6:	8a ef       	ldi	r24, 0xFA	; 250
 1a8:	90 e0       	ldi	r25, 0x00	; 0
		PORTC = 0b00001111;//---- xxxx
 1aa:	b7 df       	rcall	.-146    	; 0x11a <delaynms>
		delaynms(250);
 1ac:	d8 b9       	out	0x08, r29	; 8
 1ae:	8a ef       	ldi	r24, 0xFA	; 250
 1b0:	90 e0       	ldi	r25, 0x00	; 0
		PORTC = 0b00000111;//---- -xxx
		delaynms(250);
 1b2:	b3 df       	rcall	.-154    	; 0x11a <delaynms>
 1b4:	c8 b9       	out	0x08, r28	; 8
 1b6:	8a ef       	ldi	r24, 0xFA	; 250
		
		PORTC = 0b00000011;//---- --xx
 1b8:	90 e0       	ldi	r25, 0x00	; 0
		delaynms(250);
 1ba:	af df       	rcall	.-162    	; 0x11a <delaynms>
 1bc:	c8 b8       	out	0x08, r12	; 8
 1be:	8a ef       	ldi	r24, 0xFA	; 250
		PORTC = 0b00000111;//---- -xxx
 1c0:	90 e0       	ldi	r25, 0x00	; 0
		delaynms(250);
 1c2:	ab df       	rcall	.-170    	; 0x11a <delaynms>
 1c4:	c8 b9       	out	0x08, r28	; 8
 1c6:	8a ef       	ldi	r24, 0xFA	; 250
		PORTC = 0b00001111;//---- xxxx
 1c8:	90 e0       	ldi	r25, 0x00	; 0
		delaynms(250);
 1ca:	a7 df       	rcall	.-178    	; 0x11a <delaynms>
 1cc:	d8 b9       	out	0x08, r29	; 8
 1ce:	8a ef       	ldi	r24, 0xFA	; 250
		PORTC = 0b00011110;//---x xxx-
		delaynms(250);
 1d0:	90 e0       	ldi	r25, 0x00	; 0
 1d2:	a3 df       	rcall	.-186    	; 0x11a <delaynms>
 1d4:	18 b9       	out	0x08, r17	; 8
		PORTC = 0b00111100;//--xx xx--
 1d6:	8a ef       	ldi	r24, 0xFA	; 250
		delaynms(250);
 1d8:	90 e0       	ldi	r25, 0x00	; 0
 1da:	9f df       	rcall	.-194    	; 0x11a <delaynms>
 1dc:	08 b9       	out	0x08, r16	; 8
		PORTC = 0b01111000;//-xxx x---
 1de:	8a ef       	ldi	r24, 0xFA	; 250
		delaynms(250);
 1e0:	90 e0       	ldi	r25, 0x00	; 0
 1e2:	9b df       	rcall	.-202    	; 0x11a <delaynms>
 1e4:	f8 b8       	out	0x08, r15	; 8
 1e6:	8a ef       	ldi	r24, 0xFA	; 250
		PORTC = 0b11110000;//xxx- ----
 1e8:	90 e0       	ldi	r25, 0x00	; 0
		delaynms(250);
 1ea:	97 df       	rcall	.-210    	; 0x11a <delaynms>
 1ec:	e8 b8       	out	0x08, r14	; 8
 1ee:	8a ef       	ldi	r24, 0xFA	; 250
 1f0:	90 e0       	ldi	r25, 0x00	; 0
		PORTC = 0b11100000;//xx-- ----
 1f2:	93 df       	rcall	.-218    	; 0x11a <delaynms>
		delaynms(250);
 1f4:	d8 b8       	out	0x08, r13	; 8
 1f6:	8a ef       	ldi	r24, 0xFA	; 250
 1f8:	90 e0       	ldi	r25, 0x00	; 0
 1fa:	8f df       	rcall	.-226    	; 0x11a <delaynms>
 1fc:	bf cf       	rjmp	.-130    	; 0x17c <main+0x36>

000001fe <_exit>:
 1fe:	f8 94       	cli

00000200 <__stop_program>:
 200:	ff cf       	rjmp	.-2      	; 0x200 <__stop_program>
